target datalayout = "e-m:e-p270:32:32-p271:32:32-p272:64:64-i64:64-i128:128-f80:128-n8:16:32:64-S128"
target triple = "x86_64-pc-linux-gnu"

%"class.open_spiel::spades::Trick" = type { i32, i32, i32, i32, i32 }

; Function Attrs: mustprogress nounwind uwtable
define internal noundef i32 @_ZN10open_spiel6spades12_GLOBAL__N_18CardRankEi(i32 noundef %0) #5 {
  %2 = alloca i32, align 4
  store i32 %0, ptr %2, align 4
  %3 = load i32, ptr %2, align 4
  %4 = srem i32 %3, 13
  ret i32 %4
}

; Function Attrs: mustprogress nounwind uwtable
define internal noundef i32 @_ZN10open_spiel6spades12_GLOBAL__N_18CardSuitEi(i32 noundef %0) #5 {
  %2 = alloca i32, align 4
  store i32 %0, ptr %2, align 4
  %3 = load i32, ptr %2, align 4
  %4 = sdiv i32 %3, 13
  ret i32 %4
}

; Function Attrs: mustprogress uwtable
define void @_ZN10open_spiel6spades5Trick4PlayEii(ptr noundef nonnull align 4 dereferenceable(20) %0, i32 noundef %1, i32 noundef %2) #4 align 2 {
  %4 = alloca ptr, align 8
  %5 = alloca i32, align 4
  %6 = alloca i32, align 4
  store ptr %0, ptr %4, align 8
  store i32 %1, ptr %5, align 4
  store i32 %2, ptr %6, align 4
  %7 = load ptr, ptr %4, align 8
  %8 = load i32, ptr %6, align 4
  %9 = call noundef i32 @_ZN10open_spiel6spades12_GLOBAL__N_18CardSuitEi(i32 noundef %8)
  %10 = getelementptr inbounds nuw %"class.open_spiel::spades::Trick", ptr %7, i32 0, i32 1
  %11 = load i32, ptr %10, align 4
  %12 = icmp eq i32 %9, %11
  br i1 %12, label %13, label %26

13:                                               ; preds = %3
  %14 = load i32, ptr %6, align 4
  %15 = call noundef i32 @_ZN10open_spiel6spades12_GLOBAL__N_18CardRankEi(i32 noundef %14)
  %16 = getelementptr inbounds nuw %"class.open_spiel::spades::Trick", ptr %7, i32 0, i32 2
  %17 = load i32, ptr %16, align 4
  %18 = icmp sgt i32 %15, %17
  br i1 %18, label %19, label %25

19:                                               ; preds = %13
  %20 = load i32, ptr %6, align 4
  %21 = call noundef i32 @_ZN10open_spiel6spades12_GLOBAL__N_18CardRankEi(i32 noundef %20)
  %22 = getelementptr inbounds nuw %"class.open_spiel::spades::Trick", ptr %7, i32 0, i32 2
  store i32 %21, ptr %22, align 4
  %23 = load i32, ptr %5, align 4
  %24 = getelementptr inbounds nuw %"class.open_spiel::spades::Trick", ptr %7, i32 0, i32 4
  store i32 %23, ptr %24, align 4
  br label %25

25:                                               ; preds = %19, %13
  br label %38

26:                                               ; preds = %3
  %27 = load i32, ptr %6, align 4
  %28 = call noundef i32 @_ZN10open_spiel6spades12_GLOBAL__N_18CardSuitEi(i32 noundef %27)
  %29 = icmp eq i32 %28, 3
  br i1 %29, label %30, label %37

30:                                               ; preds = %26
  %31 = getelementptr inbounds nuw %"class.open_spiel::spades::Trick", ptr %7, i32 0, i32 1
  store i32 3, ptr %31, align 4
  %32 = load i32, ptr %6, align 4
  %33 = call noundef i32 @_ZN10open_spiel6spades12_GLOBAL__N_18CardRankEi(i32 noundef %32)
  %34 = getelementptr inbounds nuw %"class.open_spiel::spades::Trick", ptr %7, i32 0, i32 2
  store i32 %33, ptr %34, align 4
  %35 = load i32, ptr %5, align 4
  %36 = getelementptr inbounds nuw %"class.open_spiel::spades::Trick", ptr %7, i32 0, i32 4
  store i32 %35, ptr %36, align 4
  br label %37

37:                                               ; preds = %30, %26
  br label %38

38:                                               ; preds = %37, %25
  ret void
}