; Function Attrs: mustprogress nofree norecurse nosync nounwind willreturn memory(argmem: readwrite) uwtable
define void @_ZN10open_spiel6spades5Trick4PlayEii(ptr nocapture noundef nonnull align 4 dereferenceable(20) %0, i32 noundef %1, i32 noundef %2) local_unnamed_addr #7 align 2 {
  %4 = sdiv i32 %2, 13
  %5 = srem i32 %2, 13
  %6 = getelementptr inbounds nuw i8, ptr %0, i64 4
  %7 = load i32, ptr %6, align 4
  %8 = icmp eq i32 %4, %7
  br i1 %8, label %9, label %14

9:                                                ; preds = %3
  %10 = getelementptr inbounds nuw i8, ptr %0, i64 8
  %11 = load i32, ptr %10, align 4
  %12 = icmp sgt i32 %5, %11
  br i1 %12, label %13, label %20

13:                                               ; preds = %9
  store i32 %5, ptr %10, align 4
  br label %.sink.split

14:                                               ; preds = %3
  %.off = add i32 %2, -39
  %15 = icmp ult i32 %.off, 13
  br i1 %15, label %16, label %20

16:                                               ; preds = %14
  store i32 3, ptr %6, align 4
  %.lhs.trunc = trunc nuw i32 %2 to i8
  %17 = urem i8 %.lhs.trunc, 13
  %.zext = zext nneg i8 %17 to i32
  %18 = getelementptr inbounds nuw i8, ptr %0, i64 8
  store i32 %.zext, ptr %18, align 4
  br label %.sink.split

.sink.split:                                      ; preds = %13, %16
  %19 = getelementptr inbounds nuw i8, ptr %0, i64 16
  store i32 %1, ptr %19, align 4
  br label %20

20:                                               ; preds = %.sink.split, %14, %9
  ret void
}